target datalayout = "e-m:e-p270:32:32-p271:32:32-p272:64:64-i64:64-i128:128-f80:128-n8:16:32:64-S128"
target triple = "x86_64-pc-linux-gnu"

%class.btRigidBody = type { %class.btCollisionObject.base, %class.btMatrix3x3, %class.btVector3, %class.btVector3, float, %class.btVector3, %class.btVector3, %class.btVector3, %class.btVector3, %class.btVector3, %class.btVector3, float, float, i8, float, float, float, float, float, float, ptr, %class.btAlignedObjectArray.0, i32, i32, %class.btVector3, %class.btVector3, %class.btVector3, %class.btVector3, %class.btVector3, %class.btVector3, i32, i32 }
%class.btCollisionObject.base = type <{ ptr, %class.btTransform, %class.btTransform, %class.btVector3, %class.btVector3, %class.btVector3, i32, float, ptr, ptr, ptr, ptr, i32, i32, i32, i32, i32, float, float, float, float, float, float, float, i32, [4 x i8], ptr, i32, i32, i32, float, float, float, i32, [4 x i8], %class.btAlignedObjectArray, i32, %class.btVector3 }>
%class.btTransform = type { %class.btMatrix3x3, %class.btVector3 }
%class.btAlignedObjectArray = type <{ [4 x i8], i32, i32, [4 x i8], ptr, i8, [7 x i8] }>
%class.btMatrix3x3 = type { [3 x %class.btVector3] }
%class.btAlignedObjectArray.0 = type <{ [4 x i8], i32, i32, [4 x i8], ptr, i8, [7 x i8] }>
%class.btVector3 = type { [4 x float] }

@_ZZN17btActionInterface12getFixedBodyEvE7s_fixed = internal global %class.btRigidBody zeroinitializer, align 8
@_ZGVZN17btActionInterface12getFixedBodyEvE7s_fixed = internal global i64 0, align 8
@__dso_handle = external hidden global i8

; Function Attrs: inlinehint mustprogress nounwind uwtable
define linkonce_odr dso_local void @_ZN9btVector3C2ERKfS1_S1_(ptr noundef nonnull align 4 dereferenceable(16) %0, ptr noundef nonnull align 4 dereferenceable(4) %1, ptr noundef nonnull align 4 dereferenceable(4) %2, ptr noundef nonnull align 4 dereferenceable(4) %3) unnamed_addr #5 comdat align 2 {
  %5 = alloca ptr, align 8
  %6 = alloca ptr, align 8
  %7 = alloca ptr, align 8
  %8 = alloca ptr, align 8
  store ptr %0, ptr %5, align 8, !tbaa !15
  store ptr %1, ptr %6, align 8, !tbaa !17
  store ptr %2, ptr %7, align 8, !tbaa !17
  store ptr %3, ptr %8, align 8, !tbaa !17
  %9 = load ptr, ptr %5, align 8
  %10 = load ptr, ptr %6, align 8, !tbaa !17
  %11 = load float, ptr %10, align 4, !tbaa !13
  %12 = getelementptr inbounds nuw %class.btVector3, ptr %9, i32 0, i32 0
  %13 = getelementptr inbounds [4 x float], ptr %12, i64 0, i64 0
  store float %11, ptr %13, align 4, !tbaa !13
  %14 = load ptr, ptr %7, align 8, !tbaa !17
  %15 = load float, ptr %14, align 4, !tbaa !13
  %16 = getelementptr inbounds nuw %class.btVector3, ptr %9, i32 0, i32 0
  %17 = getelementptr inbounds [4 x float], ptr %16, i64 0, i64 1
  store float %15, ptr %17, align 4, !tbaa !13
  %18 = load ptr, ptr %8, align 8, !tbaa !17
  %19 = load float, ptr %18, align 4, !tbaa !13
  %20 = getelementptr inbounds nuw %class.btVector3, ptr %9, i32 0, i32 0
  %21 = getelementptr inbounds [4 x float], ptr %20, i64 0, i64 2
  store float %19, ptr %21, align 4, !tbaa !13
  %22 = getelementptr inbounds nuw %class.btVector3, ptr %9, i32 0, i32 0
  %23 = getelementptr inbounds [4 x float], ptr %22, i64 0, i64 3
  store float 0.000000e+00, ptr %23, align 4, !tbaa !13
  ret void
}

; Function Attrs: mustprogress uwtable
define dso_local noundef nonnull align 8 dereferenceable(744) ptr @_ZN17btActionInterface12getFixedBodyEv() #2 align 2 personality ptr @__gxx_personality_v0 {
  %1 = alloca %class.btVector3, align 4
  %2 = alloca float, align 4
  %3 = alloca float, align 4
  %4 = alloca float, align 4
  %5 = alloca ptr, align 8
  %6 = alloca i32, align 4
  %7 = alloca %class.btVector3, align 4
  %8 = alloca float, align 4
  %9 = alloca float, align 4
  %10 = alloca float, align 4
  %11 = load atomic i8, ptr @_ZGVZN17btActionInterface12getFixedBodyEvE7s_fixed acquire, align 8
  %12 = icmp eq i8 %11, 0
  br i1 %12, label %13, label %20, !prof !12

13:                                               ; preds = %0
  %14 = call i32 @__cxa_guard_acquire(ptr @_ZGVZN17btActionInterface12getFixedBodyEvE7s_fixed) #3
  %15 = icmp ne i32 %14, 0
  br i1 %15, label %16, label %20

16:                                               ; preds = %13
  call void @llvm.lifetime.start.p0(i64 16, ptr %1) #3
  call void @llvm.lifetime.start.p0(i64 4, ptr %2) #3
  store float 0.000000e+00, ptr %2, align 4, !tbaa !13
  call void @llvm.lifetime.start.p0(i64 4, ptr %3) #3
  store float 0.000000e+00, ptr %3, align 4, !tbaa !13
  call void @llvm.lifetime.start.p0(i64 4, ptr %4) #3
  store float 0.000000e+00, ptr %4, align 4, !tbaa !13
  invoke void @_ZN9btVector3C2ERKfS1_S1_(ptr noundef nonnull align 4 dereferenceable(16) %1, ptr noundef nonnull align 4 dereferenceable(4) %2, ptr noundef nonnull align 4 dereferenceable(4) %3, ptr noundef nonnull align 4 dereferenceable(4) %4)
          to label %17 unwind label %21

17:                                               ; preds = %16
  invoke void @_ZN11btRigidBodyC1EfP13btMotionStateP16btCollisionShapeRK9btVector3(ptr noundef nonnull align 8 dereferenceable(744) @_ZZN17btActionInterface12getFixedBodyEvE7s_fixed, float noundef 0.000000e+00, ptr noundef null, ptr noundef null, ptr noundef nonnull align 4 dereferenceable(16) %1)
          to label %18 unwind label %21

18:                                               ; preds = %17
  call void @llvm.lifetime.end.p0(i64 4, ptr %4) #3
  call void @llvm.lifetime.end.p0(i64 4, ptr %3) #3
  call void @llvm.lifetime.end.p0(i64 4, ptr %2) #3
  call void @llvm.lifetime.end.p0(i64 16, ptr %1) #3
  %19 = call i32 @__cxa_atexit(ptr @_ZN11btRigidBodyD2Ev, ptr @_ZZN17btActionInterface12getFixedBodyEvE7s_fixed, ptr @__dso_handle) #3
  call void @__cxa_guard_release(ptr @_ZGVZN17btActionInterface12getFixedBodyEvE7s_fixed) #3
  br label %20

20:                                               ; preds = %18, %13, %0
  call void @llvm.lifetime.start.p0(i64 16, ptr %7) #3
  call void @llvm.lifetime.start.p0(i64 4, ptr %8) #3
  store float 0.000000e+00, ptr %8, align 4, !tbaa !13
  call void @llvm.lifetime.start.p0(i64 4, ptr %9) #3
  store float 0.000000e+00, ptr %9, align 4, !tbaa !13
  call void @llvm.lifetime.start.p0(i64 4, ptr %10) #3
  store float 0.000000e+00, ptr %10, align 4, !tbaa !13
  call void @_ZN9btVector3C2ERKfS1_S1_(ptr noundef nonnull align 4 dereferenceable(16) %7, ptr noundef nonnull align 4 dereferenceable(4) %8, ptr noundef nonnull align 4 dereferenceable(4) %9, ptr noundef nonnull align 4 dereferenceable(4) %10)
  call void @_ZN11btRigidBody12setMassPropsEfRK9btVector3(ptr noundef nonnull align 8 dereferenceable(744) @_ZZN17btActionInterface12getFixedBodyEvE7s_fixed, float noundef 0.000000e+00, ptr noundef nonnull align 4 dereferenceable(16) %7)
  call void @llvm.lifetime.end.p0(i64 4, ptr %10) #3
  call void @llvm.lifetime.end.p0(i64 4, ptr %9) #3
  call void @llvm.lifetime.end.p0(i64 4, ptr %8) #3
  call void @llvm.lifetime.end.p0(i64 16, ptr %7) #3
  ret ptr @_ZZN17btActionInterface12getFixedBodyEvE7s_fixed

21:                                               ; preds = %17, %16
  %22 = landingpad { ptr, i32 }
          cleanup
  %23 = extractvalue { ptr, i32 } %22, 0
  store ptr %23, ptr %5, align 8
  %24 = extractvalue { ptr, i32 } %22, 1
  store i32 %24, ptr %6, align 4
  call void @llvm.lifetime.end.p0(i64 4, ptr %4) #3
  call void @llvm.lifetime.end.p0(i64 4, ptr %3) #3
  call void @llvm.lifetime.end.p0(i64 4, ptr %2) #3
  call void @llvm.lifetime.end.p0(i64 16, ptr %1) #3
  call void @__cxa_guard_abort(ptr @_ZGVZN17btActionInterface12getFixedBodyEvE7s_fixed) #3
  br label %25

25:                                               ; preds = %21
  %26 = load ptr, ptr %5, align 8
  %27 = load i32, ptr %6, align 4
  %28 = insertvalue { ptr, i32 } poison, ptr %26, 0
  %29 = insertvalue { ptr, i32 } %28, i32 %27, 1
  resume { ptr, i32 } %29
}