; Function Attrs: mustprogress uwtable
define dso_local noundef nonnull align 8 dereferenceable(744) ptr @_ZN17btActionInterface12getFixedBodyEv() local_unnamed_addr #0 align 2 personality ptr @__gxx_personality_v0 {
  %1 = alloca %class.btVector3, align 4
  %2 = alloca %class.btVector3, align 4
  %3 = load atomic i8, ptr @_ZGVZN17btActionInterface12getFixedBodyEvE7s_fixed acquire, align 8
  %4 = icmp eq i8 %3, 0
  br i1 %4, label %5, label %10, !prof !4

5:                                                ; preds = %0
  %6 = tail call i32 @__cxa_guard_acquire(ptr nonnull @_ZGVZN17btActionInterface12getFixedBodyEvE7s_fixed) #21
  %.not = icmp eq i32 %6, 0
  br i1 %.not, label %10, label %7

7:                                                ; preds = %5
  call void @llvm.lifetime.start.p0(i64 16, ptr nonnull %1) #21
  call void @llvm.memset.p0.i64(ptr noundef nonnull align 4 dereferenceable(16) %1, i8 0, i64 16, i1 false)
  invoke void @_ZN11btRigidBodyC1EfP13btMotionStateP16btCollisionShapeRK9btVector3(ptr noundef nonnull align 8 dereferenceable(744) @_ZZN17btActionInterface12getFixedBodyEvE7s_fixed, float noundef 0.000000e+00, ptr noundef null, ptr noundef null, ptr noundef nonnull align 4 dereferenceable(16) %1)
          to label %8 unwind label %11

8:                                                ; preds = %7
  call void @llvm.lifetime.end.p0(i64 16, ptr nonnull %1) #21
  %9 = call i32 @__cxa_atexit(ptr nonnull @_ZN11btRigidBodyD2Ev, ptr nonnull @_ZZN17btActionInterface12getFixedBodyEvE7s_fixed, ptr nonnull @__dso_handle) #21
  call void @__cxa_guard_release(ptr nonnull @_ZGVZN17btActionInterface12getFixedBodyEvE7s_fixed) #21
  br label %10

10:                                               ; preds = %8, %5, %0
  call void @llvm.lifetime.start.p0(i64 16, ptr nonnull %2) #21
  call void @llvm.memset.p0.i64(ptr noundef nonnull align 4 dereferenceable(16) %2, i8 0, i64 16, i1 false)
  call void @_ZN11btRigidBody12setMassPropsEfRK9btVector3(ptr noundef nonnull align 8 dereferenceable(744) @_ZZN17btActionInterface12getFixedBodyEvE7s_fixed, float noundef 0.000000e+00, ptr noundef nonnull align 4 dereferenceable(16) %2)
  call void @llvm.lifetime.end.p0(i64 16, ptr nonnull %2) #21
  ret ptr @_ZZN17btActionInterface12getFixedBodyEvE7s_fixed

11:                                               ; preds = %7
  %12 = landingpad { ptr, i32 }
          cleanup
  call void @llvm.lifetime.end.p0(i64 16, ptr nonnull %1) #21
  call void @__cxa_guard_abort(ptr nonnull @_ZGVZN17btActionInterface12getFixedBodyEvE7s_fixed) #21
  resume { ptr, i32 } %12
}